; Function Attrs: nounwind uwtable
define internal noundef i32 @dissect_netb_session_confirm(ptr noundef %0, ptr readnone captures(none) %1, i32 noundef %2, ptr noundef %3) #1 {
  %5 = add i32 %2, 5
  %6 = load i32, ptr @hf_netb_flags, align 4
  %7 = tail call ptr @proto_tree_add_item(ptr noundef %3, i32 noundef %6, ptr noundef %0, i32 noundef %5, i32 noundef 1, i32 noundef -2147483648) #6
  %8 = load i32, ptr @ett_netb_flags, align 4
  %9 = tail call ptr @proto_item_add_subtree(ptr noundef %7, i32 noundef %8) #6
  %10 = load i32, ptr @hf_netb_flags_send_no_ack, align 4
  %11 = tail call ptr @proto_tree_add_item(ptr noundef %9, i32 noundef %10, ptr noundef %0, i32 noundef %5, i32 noundef 1, i32 noundef -2147483648) #6
  %12 = load i32, ptr @hf_netb_version, align 4
  %13 = tail call ptr @proto_tree_add_item(ptr noundef %9, i32 noundef %12, ptr noundef %0, i32 noundef %5, i32 noundef 1, i32 noundef -2147483648) #6
  %14 = load i32, ptr @hf_netb_max_data_recv_size, align 4
  %15 = add i32 %2, 6
  %16 = tail call ptr @proto_tree_add_item(ptr noundef %3, i32 noundef %14, ptr noundef %0, i32 noundef %15, i32 noundef 2, i32 noundef -2147483648) #6
  %17 = load i32, ptr @hf_netb_xmit_corrl, align 4
  %18 = add i32 %2, 8
  %19 = tail call ptr @proto_tree_add_item(ptr noundef %3, i32 noundef %17, ptr noundef %0, i32 noundef %18, i32 noundef 2, i32 noundef -2147483648) #6
  %20 = load i32, ptr @hf_netb_resp_corrl, align 4
  %21 = add i32 %2, 10
  %22 = tail call ptr @proto_tree_add_item(ptr noundef %3, i32 noundef %20, ptr noundef %0, i32 noundef %21, i32 noundef 2, i32 noundef -2147483648) #6
  %23 = add i32 %2, 12
  %24 = tail call zeroext i8 @tvb_get_guint8(ptr noundef %0, i32 noundef %23) #6
  %25 = load i32, ptr @hf_netb_remote_ses_no, align 4
  %26 = zext i8 %24 to i32
  %27 = tail call ptr @proto_tree_add_uint(ptr noundef %3, i32 noundef %25, ptr noundef %0, i32 noundef %23, i32 noundef 1, i32 noundef %26) #6
  %28 = add i32 %2, 13
  %29 = tail call zeroext i8 @tvb_get_guint8(ptr noundef %0, i32 noundef %28) #6
  %30 = load i32, ptr @hf_netb_local_ses_no, align 4
  %31 = zext i8 %29 to i32
  %32 = tail call ptr @proto_tree_add_uint(ptr noundef %3, i32 noundef %30, ptr noundef %0, i32 noundef %28, i32 noundef 1, i32 noundef %31) #6
  ret i32 0
}